target datalayout = "e-m:e-p270:32:32-p271:32:32-p272:64:64-i64:64-i128:128-f80:128-n8:16:32:64-S128"
target triple = "x86_64-pc-linux-gnu"

%struct.mbedtls_chacha20_context = type { [16 x i32], [64 x i8], i64 }

@.str = private unnamed_addr constant [20 x i8] c"  ChaCha20 test %u \00", align 1
@test_keys = internal constant [2 x [32 x i8]] [[32 x i8] zeroinitializer, [32 x i8] c"\00\00\00\00\00\00\00\00\00\00\00\00\00\00\00\00\00\00\00\00\00\00\00\00\00\00\00\00\00\00\00\01"], align 16
@test_nonces = internal constant [2 x [12 x i8]] [[12 x i8] zeroinitializer, [12 x i8] c"\00\00\00\00\00\00\00\00\00\00\00\02"], align 16
@test_counters = internal constant [2 x i32] [i32 0, i32 1], align 4
@test_lengths = internal constant [2 x i64] [i64 64, i64 375], align 16
@.str.1 = private unnamed_addr constant [16 x i8] c"error code: %i\0A\00", align 1
@.str.2 = private unnamed_addr constant [17 x i8] c"failed (output)\0A\00", align 1
@.str.3 = private unnamed_addr constant [8 x i8] c"passed\0A\00", align 1
@.str.4 = private unnamed_addr constant [2 x i8] c"\0A\00", align 1

; Function Attrs: alwaysinline nounwind uwtable
define internal i32 @mbedtls_get_unaligned_uint32(ptr noundef %0) #2 {
  %2 = alloca ptr, align 8
  %3 = alloca i32, align 4
  store ptr %0, ptr %2, align 8, !tbaa !15
  call void @llvm.lifetime.start.p0(i64 4, ptr %3) #7
  %4 = load ptr, ptr %2, align 8, !tbaa !15
  call void @llvm.memcpy.p0.p0.i64(ptr align 4 %3, ptr align 1 %4, i64 4, i1 false)
  %5 = load i32, ptr %3, align 4, !tbaa !13
  call void @llvm.lifetime.end.p0(i64 4, ptr %3) #7
  ret i32 %5
}

; Function Attrs: nounwind uwtable
define hidden void @mbedtls_chacha20_free(ptr noundef %0) #0 {
  %2 = alloca ptr, align 8
  store ptr %0, ptr %2, align 8, !tbaa !3
  %3 = load ptr, ptr %2, align 8, !tbaa !3
  %4 = icmp ne ptr %3, null
  br i1 %4, label %5, label %7

5:                                                ; preds = %1
  %6 = load ptr, ptr %2, align 8, !tbaa !3
  call void @mbedtls_platform_zeroize(ptr noundef %6, i64 noundef 136)
  br label %7

7:                                                ; preds = %5, %1
  ret void
}

; Function Attrs: nounwind uwtable
define hidden i32 @mbedtls_chacha20_starts(ptr noundef %0, ptr noundef %1, i32 noundef %2) #0 {
  %4 = alloca ptr, align 8
  %5 = alloca ptr, align 8
  %6 = alloca i32, align 4
  store ptr %0, ptr %4, align 8, !tbaa !3
  store ptr %1, ptr %5, align 8, !tbaa !11
  store i32 %2, ptr %6, align 4, !tbaa !13
  %7 = load i32, ptr %6, align 4, !tbaa !13
  %8 = load ptr, ptr %4, align 8, !tbaa !3
  %9 = getelementptr inbounds nuw %struct.mbedtls_chacha20_context, ptr %8, i32 0, i32 0
  %10 = getelementptr inbounds [16 x i32], ptr %9, i64 0, i64 12
  store i32 %7, ptr %10, align 8, !tbaa !13
  %11 = load ptr, ptr %5, align 8, !tbaa !11
  %12 = getelementptr inbounds i8, ptr %11, i64 0
  %13 = call i32 @mbedtls_get_unaligned_uint32(ptr noundef %12)
  %14 = load ptr, ptr %4, align 8, !tbaa !3
  %15 = getelementptr inbounds nuw %struct.mbedtls_chacha20_context, ptr %14, i32 0, i32 0
  %16 = getelementptr inbounds [16 x i32], ptr %15, i64 0, i64 13
  store i32 %13, ptr %16, align 4, !tbaa !13
  %17 = load ptr, ptr %5, align 8, !tbaa !11
  %18 = getelementptr inbounds i8, ptr %17, i64 4
  %19 = call i32 @mbedtls_get_unaligned_uint32(ptr noundef %18)
  %20 = load ptr, ptr %4, align 8, !tbaa !3
  %21 = getelementptr inbounds nuw %struct.mbedtls_chacha20_context, ptr %20, i32 0, i32 0
  %22 = getelementptr inbounds [16 x i32], ptr %21, i64 0, i64 14
  store i32 %19, ptr %22, align 8, !tbaa !13
  %23 = load ptr, ptr %5, align 8, !tbaa !11
  %24 = getelementptr inbounds i8, ptr %23, i64 8
  %25 = call i32 @mbedtls_get_unaligned_uint32(ptr noundef %24)
  %26 = load ptr, ptr %4, align 8, !tbaa !3
  %27 = getelementptr inbounds nuw %struct.mbedtls_chacha20_context, ptr %26, i32 0, i32 0
  %28 = getelementptr inbounds [16 x i32], ptr %27, i64 0, i64 15
  store i32 %25, ptr %28, align 4, !tbaa !13
  %29 = load ptr, ptr %4, align 8, !tbaa !3
  %30 = getelementptr inbounds nuw %struct.mbedtls_chacha20_context, ptr %29, i32 0, i32 1
  %31 = getelementptr inbounds [64 x i8], ptr %30, i64 0, i64 0
  call void @mbedtls_platform_zeroize(ptr noundef %31, i64 noundef 64)
  %32 = load ptr, ptr %4, align 8, !tbaa !3
  %33 = getelementptr inbounds nuw %struct.mbedtls_chacha20_context, ptr %32, i32 0, i32 2
  store i64 64, ptr %33, align 8, !tbaa !8
  ret i32 0
}

; Function Attrs: nounwind uwtable
define hidden i32 @mbedtls_chacha20_setkey(ptr noundef %0, ptr noundef %1) #0 {
  %3 = alloca ptr, align 8
  %4 = alloca ptr, align 8
  store ptr %0, ptr %3, align 8, !tbaa !3
  store ptr %1, ptr %4, align 8, !tbaa !11
  %5 = load ptr, ptr %3, align 8, !tbaa !3
  %6 = getelementptr inbounds nuw %struct.mbedtls_chacha20_context, ptr %5, i32 0, i32 0
  %7 = getelementptr inbounds [16 x i32], ptr %6, i64 0, i64 0
  store i32 1634760805, ptr %7, align 8, !tbaa !13
  %8 = load ptr, ptr %3, align 8, !tbaa !3
  %9 = getelementptr inbounds nuw %struct.mbedtls_chacha20_context, ptr %8, i32 0, i32 0
  %10 = getelementptr inbounds [16 x i32], ptr %9, i64 0, i64 1
  store i32 857760878, ptr %10, align 4, !tbaa !13
  %11 = load ptr, ptr %3, align 8, !tbaa !3
  %12 = getelementptr inbounds nuw %struct.mbedtls_chacha20_context, ptr %11, i32 0, i32 0
  %13 = getelementptr inbounds [16 x i32], ptr %12, i64 0, i64 2
  store i32 2036477234, ptr %13, align 8, !tbaa !13
  %14 = load ptr, ptr %3, align 8, !tbaa !3
  %15 = getelementptr inbounds nuw %struct.mbedtls_chacha20_context, ptr %14, i32 0, i32 0
  %16 = getelementptr inbounds [16 x i32], ptr %15, i64 0, i64 3
  store i32 1797285236, ptr %16, align 4, !tbaa !13
  %17 = load ptr, ptr %4, align 8, !tbaa !11
  %18 = getelementptr inbounds i8, ptr %17, i64 0
  %19 = call i32 @mbedtls_get_unaligned_uint32(ptr noundef %18)
  %20 = load ptr, ptr %3, align 8, !tbaa !3
  %21 = getelementptr inbounds nuw %struct.mbedtls_chacha20_context, ptr %20, i32 0, i32 0
  %22 = getelementptr inbounds [16 x i32], ptr %21, i64 0, i64 4
  store i32 %19, ptr %22, align 8, !tbaa !13
  %23 = load ptr, ptr %4, align 8, !tbaa !11
  %24 = getelementptr inbounds i8, ptr %23, i64 4
  %25 = call i32 @mbedtls_get_unaligned_uint32(ptr noundef %24)
  %26 = load ptr, ptr %3, align 8, !tbaa !3
  %27 = getelementptr inbounds nuw %struct.mbedtls_chacha20_context, ptr %26, i32 0, i32 0
  %28 = getelementptr inbounds [16 x i32], ptr %27, i64 0, i64 5
  store i32 %25, ptr %28, align 4, !tbaa !13
  %29 = load ptr, ptr %4, align 8, !tbaa !11
  %30 = getelementptr inbounds i8, ptr %29, i64 8
  %31 = call i32 @mbedtls_get_unaligned_uint32(ptr noundef %30)
  %32 = load ptr, ptr %3, align 8, !tbaa !3
  %33 = getelementptr inbounds nuw %struct.mbedtls_chacha20_context, ptr %32, i32 0, i32 0
  %34 = getelementptr inbounds [16 x i32], ptr %33, i64 0, i64 6
  store i32 %31, ptr %34, align 8, !tbaa !13
  %35 = load ptr, ptr %4, align 8, !tbaa !11
  %36 = getelementptr inbounds i8, ptr %35, i64 12
  %37 = call i32 @mbedtls_get_unaligned_uint32(ptr noundef %36)
  %38 = load ptr, ptr %3, align 8, !tbaa !3
  %39 = getelementptr inbounds nuw %struct.mbedtls_chacha20_context, ptr %38, i32 0, i32 0
  %40 = getelementptr inbounds [16 x i32], ptr %39, i64 0, i64 7
  store i32 %37, ptr %40, align 4, !tbaa !13
  %41 = load ptr, ptr %4, align 8, !tbaa !11
  %42 = getelementptr inbounds i8, ptr %41, i64 16
  %43 = call i32 @mbedtls_get_unaligned_uint32(ptr noundef %42)
  %44 = load ptr, ptr %3, align 8, !tbaa !3
  %45 = getelementptr inbounds nuw %struct.mbedtls_chacha20_context, ptr %44, i32 0, i32 0
  %46 = getelementptr inbounds [16 x i32], ptr %45, i64 0, i64 8
  store i32 %43, ptr %46, align 8, !tbaa !13
  %47 = load ptr, ptr %4, align 8, !tbaa !11
  %48 = getelementptr inbounds i8, ptr %47, i64 20
  %49 = call i32 @mbedtls_get_unaligned_uint32(ptr noundef %48)
  %50 = load ptr, ptr %3, align 8, !tbaa !3
  %51 = getelementptr inbounds nuw %struct.mbedtls_chacha20_context, ptr %50, i32 0, i32 0
  %52 = getelementptr inbounds [16 x i32], ptr %51, i64 0, i64 9
  store i32 %49, ptr %52, align 4, !tbaa !13
  %53 = load ptr, ptr %4, align 8, !tbaa !11
  %54 = getelementptr inbounds i8, ptr %53, i64 24
  %55 = call i32 @mbedtls_get_unaligned_uint32(ptr noundef %54)
  %56 = load ptr, ptr %3, align 8, !tbaa !3
  %57 = getelementptr inbounds nuw %struct.mbedtls_chacha20_context, ptr %56, i32 0, i32 0
  %58 = getelementptr inbounds [16 x i32], ptr %57, i64 0, i64 10
  store i32 %55, ptr %58, align 8, !tbaa !13
  %59 = load ptr, ptr %4, align 8, !tbaa !11
  %60 = getelementptr inbounds i8, ptr %59, i64 28
  %61 = call i32 @mbedtls_get_unaligned_uint32(ptr noundef %60)
  %62 = load ptr, ptr %3, align 8, !tbaa !3
  %63 = getelementptr inbounds nuw %struct.mbedtls_chacha20_context, ptr %62, i32 0, i32 0
  %64 = getelementptr inbounds [16 x i32], ptr %63, i64 0, i64 11
  store i32 %61, ptr %64, align 4, !tbaa !13
  ret i32 0
}

; Function Attrs: nounwind uwtable
define hidden void @mbedtls_chacha20_init(ptr noundef %0) #0 {
  %2 = alloca ptr, align 8
  store ptr %0, ptr %2, align 8, !tbaa !3
  %3 = load ptr, ptr %2, align 8, !tbaa !3
  %4 = getelementptr inbounds nuw %struct.mbedtls_chacha20_context, ptr %3, i32 0, i32 0
  %5 = getelementptr inbounds [16 x i32], ptr %4, i64 0, i64 0
  call void @mbedtls_platform_zeroize(ptr noundef %5, i64 noundef 64)
  %6 = load ptr, ptr %2, align 8, !tbaa !3
  %7 = getelementptr inbounds nuw %struct.mbedtls_chacha20_context, ptr %6, i32 0, i32 1
  %8 = getelementptr inbounds [64 x i8], ptr %7, i64 0, i64 0
  call void @mbedtls_platform_zeroize(ptr noundef %8, i64 noundef 64)
  %9 = load ptr, ptr %2, align 8, !tbaa !3
  %10 = getelementptr inbounds nuw %struct.mbedtls_chacha20_context, ptr %9, i32 0, i32 2
  store i64 64, ptr %10, align 8, !tbaa !8
  ret void
}

; Function Attrs: nounwind uwtable
define hidden i32 @mbedtls_chacha20_crypt(ptr noundef %0, ptr noundef %1, i32 noundef %2, i64 noundef %3, ptr noundef %4, ptr noundef %5) #0 {
  %7 = alloca ptr, align 8
  %8 = alloca ptr, align 8
  %9 = alloca i32, align 4
  %10 = alloca i64, align 8
  %11 = alloca ptr, align 8
  %12 = alloca ptr, align 8
  %13 = alloca %struct.mbedtls_chacha20_context, align 8
  %14 = alloca i32, align 4
  store ptr %0, ptr %7, align 8, !tbaa !11
  store ptr %1, ptr %8, align 8, !tbaa !11
  store i32 %2, ptr %9, align 4, !tbaa !13
  store i64 %3, ptr %10, align 8, !tbaa !16
  store ptr %4, ptr %11, align 8, !tbaa !11
  store ptr %5, ptr %12, align 8, !tbaa !11
  call void @llvm.lifetime.start.p0(i64 136, ptr %13) #7
  call void @llvm.lifetime.start.p0(i64 4, ptr %14) #7
  store i32 -110, ptr %14, align 4, !tbaa !13
  call void @mbedtls_chacha20_init(ptr noundef %13)
  %15 = load ptr, ptr %7, align 8, !tbaa !11
  %16 = call i32 @mbedtls_chacha20_setkey(ptr noundef %13, ptr noundef %15)
  store i32 %16, ptr %14, align 4, !tbaa !13
  %17 = load i32, ptr %14, align 4, !tbaa !13
  %18 = icmp ne i32 %17, 0
  br i1 %18, label %19, label %20

19:                                               ; preds = %6
  br label %32

20:                                               ; preds = %6
  %21 = load ptr, ptr %8, align 8, !tbaa !11
  %22 = load i32, ptr %9, align 4, !tbaa !13
  %23 = call i32 @mbedtls_chacha20_starts(ptr noundef %13, ptr noundef %21, i32 noundef %22)
  store i32 %23, ptr %14, align 4, !tbaa !13
  %24 = load i32, ptr %14, align 4, !tbaa !13
  %25 = icmp ne i32 %24, 0
  br i1 %25, label %26, label %27

26:                                               ; preds = %20
  br label %32

27:                                               ; preds = %20
  %28 = load i64, ptr %10, align 8, !tbaa !16
  %29 = load ptr, ptr %11, align 8, !tbaa !11
  %30 = load ptr, ptr %12, align 8, !tbaa !11
  %31 = call i32 @mbedtls_chacha20_update(ptr noundef %13, i64 noundef %28, ptr noundef %29, ptr noundef %30)
  store i32 %31, ptr %14, align 4, !tbaa !13
  br label %32

32:                                               ; preds = %27, %26, %19
  call void @mbedtls_chacha20_free(ptr noundef %13)
  %33 = load i32, ptr %14, align 4, !tbaa !13
  call void @llvm.lifetime.end.p0(i64 4, ptr %14) #7
  call void @llvm.lifetime.end.p0(i64 136, ptr %13) #7
  ret i32 %33
}

; Function Attrs: nounwind uwtable
define hidden i32 @mbedtls_chacha20_self_test(i32 noundef %0) #0 {
  %2 = alloca i32, align 4
  %3 = alloca i32, align 4
  %4 = alloca [381 x i8], align 16
  %5 = alloca i32, align 4
  %6 = alloca i32, align 4
  %7 = alloca i32, align 4
  store i32 %0, ptr %3, align 4, !tbaa !13
  call void @llvm.lifetime.start.p0(i64 381, ptr %4) #7
  call void @llvm.lifetime.start.p0(i64 4, ptr %5) #7
  call void @llvm.lifetime.start.p0(i64 4, ptr %6) #7
  store i32 -110, ptr %6, align 4, !tbaa !13
  store i32 0, ptr %5, align 4, !tbaa !13
  br label %8

8:                                                ; preds = %79, %1
  %9 = load i32, ptr %5, align 4, !tbaa !13
  %10 = icmp ult i32 %9, 2
  br i1 %10, label %11, label %82

11:                                               ; preds = %8
  %12 = load i32, ptr %3, align 4, !tbaa !13
  %13 = icmp ne i32 %12, 0
  br i1 %13, label %14, label %17

14:                                               ; preds = %11
  %15 = load i32, ptr %5, align 4, !tbaa !13
  %16 = call i32 (ptr, ...) @printf(ptr noundef @.str, i32 noundef %15)
  br label %17

17:                                               ; preds = %14, %11
  %18 = load i32, ptr %5, align 4, !tbaa !13
  %19 = zext i32 %18 to i64
  %20 = getelementptr inbounds nuw [2 x [32 x i8]], ptr @test_keys, i64 0, i64 %19
  %21 = getelementptr inbounds [32 x i8], ptr %20, i64 0, i64 0
  %22 = load i32, ptr %5, align 4, !tbaa !13
  %23 = zext i32 %22 to i64
  %24 = getelementptr inbounds nuw [2 x [12 x i8]], ptr @test_nonces, i64 0, i64 %23
  %25 = getelementptr inbounds [12 x i8], ptr %24, i64 0, i64 0
  %26 = load i32, ptr %5, align 4, !tbaa !13
  %27 = zext i32 %26 to i64
  %28 = getelementptr inbounds nuw [2 x i32], ptr @test_counters, i64 0, i64 %27
  %29 = load i32, ptr %28, align 4, !tbaa !13
  %30 = load i32, ptr %5, align 4, !tbaa !13
  %31 = zext i32 %30 to i64
  %32 = getelementptr inbounds nuw [2 x i64], ptr @test_lengths, i64 0, i64 %31
  %33 = load i64, ptr %32, align 8, !tbaa !16
  %34 = load i32, ptr %5, align 4, !tbaa !13
  %35 = zext i32 %34 to i64
  %36 = getelementptr inbounds nuw [2 x [375 x i8]], ptr @test_input, i64 0, i64 %35
  %37 = getelementptr inbounds [375 x i8], ptr %36, i64 0, i64 0
  %38 = getelementptr inbounds [381 x i8], ptr %4, i64 0, i64 0
  %39 = call i32 @mbedtls_chacha20_crypt(ptr noundef %21, ptr noundef %25, i32 noundef %29, i64 noundef %33, ptr noundef %37, ptr noundef %38)
  store i32 %39, ptr %6, align 4, !tbaa !13
  br label %40

40:                                               ; preds = %17
  %41 = load i32, ptr %6, align 4, !tbaa !13
  %42 = icmp eq i32 0, %41
  br i1 %42, label %50, label %43

43:                                               ; preds = %40
  %44 = load i32, ptr %3, align 4, !tbaa !13
  %45 = icmp ne i32 %44, 0
  br i1 %45, label %46, label %49

46:                                               ; preds = %43
  %47 = load i32, ptr %6, align 4, !tbaa !13
  %48 = call i32 (ptr, ...) @printf(ptr noundef @.str.1, i32 noundef %47)
  br label %49

49:                                               ; preds = %46, %43
  store i32 -1, ptr %2, align 4
  store i32 1, ptr %7, align 4
  br label %88

50:                                               ; preds = %40
  br label %51

51:                                               ; preds = %50
  br label %52

52:                                               ; preds = %51
  br label %53

53:                                               ; preds = %52
  %54 = getelementptr inbounds [381 x i8], ptr %4, i64 0, i64 0
  %55 = load i32, ptr %5, align 4, !tbaa !13
  %56 = zext i32 %55 to i64
  %57 = getelementptr inbounds nuw [2 x [375 x i8]], ptr @test_output, i64 0, i64 %56
  %58 = getelementptr inbounds [375 x i8], ptr %57, i64 0, i64 0
  %59 = load i32, ptr %5, align 4, !tbaa !13
  %60 = zext i32 %59 to i64
  %61 = getelementptr inbounds nuw [2 x i64], ptr @test_lengths, i64 0, i64 %60
  %62 = load i64, ptr %61, align 8, !tbaa !16
  %63 = call i32 @memcmp(ptr noundef %54, ptr noundef %58, i64 noundef %62) #8
  %64 = icmp eq i32 0, %63
  br i1 %64, label %71, label %65

65:                                               ; preds = %53
  %66 = load i32, ptr %3, align 4, !tbaa !13
  %67 = icmp ne i32 %66, 0
  br i1 %67, label %68, label %70

68:                                               ; preds = %65
  %69 = call i32 (ptr, ...) @printf(ptr noundef @.str.2)
  br label %70

70:                                               ; preds = %68, %65
  store i32 -1, ptr %2, align 4
  store i32 1, ptr %7, align 4
  br label %88

71:                                               ; preds = %53
  br label %72

72:                                               ; preds = %71
  br label %73

73:                                               ; preds = %72
  %74 = load i32, ptr %3, align 4, !tbaa !13
  %75 = icmp ne i32 %74, 0
  br i1 %75, label %76, label %78

76:                                               ; preds = %73
  %77 = call i32 (ptr, ...) @printf(ptr noundef @.str.3)
  br label %78

78:                                               ; preds = %76, %73
  br label %79

79:                                               ; preds = %78
  %80 = load i32, ptr %5, align 4, !tbaa !13
  %81 = add i32 %80, 1
  store i32 %81, ptr %5, align 4, !tbaa !13
  br label %8, !llvm.loop !27

82:                                               ; preds = %8
  %83 = load i32, ptr %3, align 4, !tbaa !13
  %84 = icmp ne i32 %83, 0
  br i1 %84, label %85, label %87

85:                                               ; preds = %82
  %86 = call i32 (ptr, ...) @printf(ptr noundef @.str.4)
  br label %87

87:                                               ; preds = %85, %82
  store i32 0, ptr %2, align 4
  store i32 1, ptr %7, align 4
  br label %88

88:                                               ; preds = %87, %70, %49
  call void @llvm.lifetime.end.p0(i64 4, ptr %6) #7
  call void @llvm.lifetime.end.p0(i64 4, ptr %5) #7
  call void @llvm.lifetime.end.p0(i64 381, ptr %4) #7
  %89 = load i32, ptr %2, align 4
  ret i32 %89
}