; Function Attrs: nounwind uwtable
define hidden range(i32 -1, 1) i32 @mbedtls_chacha20_self_test(i32 noundef %0) local_unnamed_addr #0 {
  %2 = alloca %struct.mbedtls_chacha20_context, align 8
  %3 = alloca [381 x i8], align 16
  call void @llvm.lifetime.start.p0(i64 381, ptr nonnull %3) #10
  %.not20 = icmp eq i32 %0, 0
  %4 = getelementptr inbounds nuw i8, ptr %2, i64 64
  %5 = getelementptr inbounds nuw i8, ptr %2, i64 128
  %6 = getelementptr inbounds nuw i8, ptr %2, i64 4
  %7 = getelementptr inbounds nuw i8, ptr %2, i64 8
  %8 = getelementptr inbounds nuw i8, ptr %2, i64 12
  %9 = getelementptr inbounds nuw i8, ptr %2, i64 16
  %10 = getelementptr inbounds nuw i8, ptr %2, i64 44
  %11 = getelementptr inbounds nuw i8, ptr %2, i64 48
  %12 = getelementptr inbounds nuw i8, ptr %2, i64 52
  %13 = getelementptr inbounds nuw i8, ptr %2, i64 56
  %14 = getelementptr inbounds nuw i8, ptr %2, i64 60
  br label %.backedge

.backedge:                                        ; preds = %.backedge.backedge, %1
  %15 = phi i1 [ true, %1 ], [ false, %.backedge.backedge ]
  %indvars.iv = phi i64 [ 0, %1 ], [ 1, %.backedge.backedge ]
  br i1 %.not20, label %19, label %16

16:                                               ; preds = %.backedge
  %17 = trunc nuw nsw i64 %indvars.iv to i32
  %18 = call i32 (ptr, ...) @printf(ptr noundef nonnull dereferenceable(1) @.str, i32 noundef %17)
  br label %19

19:                                               ; preds = %16, %.backedge
  %20 = getelementptr inbounds nuw [2 x i32], ptr @test_counters, i64 0, i64 %indvars.iv
  %21 = load i32, ptr %20, align 4, !tbaa !8
  %22 = getelementptr inbounds nuw [2 x i64], ptr @test_lengths, i64 0, i64 %indvars.iv
  %23 = load i64, ptr %22, align 8, !tbaa !17
  %24 = getelementptr inbounds nuw [2 x [375 x i8]], ptr @test_input, i64 0, i64 %indvars.iv
  call void @llvm.lifetime.start.p0(i64 136, ptr nonnull %2) #10
  call void @mbedtls_platform_zeroize(ptr noundef nonnull %2, i64 noundef 64) #10
  call void @mbedtls_platform_zeroize(ptr noundef nonnull %4, i64 noundef 64) #10
  store i64 64, ptr %5, align 8, !tbaa !3
  store i32 1634760805, ptr %2, align 8, !tbaa !8
  store i32 857760878, ptr %6, align 4, !tbaa !8
  store i32 2036477234, ptr %7, align 8, !tbaa !8
  store i32 1797285236, ptr %8, align 4, !tbaa !8
  %gep = getelementptr inbounds nuw [2 x [32 x i8]], ptr getelementptr inbounds nuw (i8, ptr @test_keys, i64 28), i64 0, i64 %indvars.iv
  call void @llvm.memset.p0.i64(ptr noundef nonnull align 8 dereferenceable(28) %9, i8 0, i64 28, i1 false)
  %.0.copyload.i26.i.i = load i32, ptr %gep, align 4
  store i32 %.0.copyload.i26.i.i, ptr %10, align 4, !tbaa !8
  store i32 %21, ptr %11, align 8, !tbaa !8
  store i32 0, ptr %12, align 4, !tbaa !8
  store i32 0, ptr %13, align 8, !tbaa !8
  %gep22 = getelementptr inbounds nuw [2 x [12 x i8]], ptr getelementptr inbounds nuw (i8, ptr @test_nonces, i64 8), i64 0, i64 %indvars.iv
  %.0.copyload.i.i10.i = load i32, ptr %gep22, align 4
  store i32 %.0.copyload.i.i10.i, ptr %14, align 4, !tbaa !8
  call void @mbedtls_platform_zeroize(ptr noundef nonnull %4, i64 noundef 64) #10
  store i64 64, ptr %5, align 8, !tbaa !3
  %25 = call i32 @mbedtls_chacha20_update(ptr noundef nonnull %2, i64 noundef %23, ptr noundef nonnull readonly %24, ptr noundef nonnull %3)
  call void @mbedtls_platform_zeroize(ptr noundef nonnull %2, i64 noundef 136) #10
  call void @llvm.lifetime.end.p0(i64 136, ptr nonnull %2) #10
  %26 = getelementptr inbounds nuw [2 x [375 x i8]], ptr @test_output, i64 0, i64 %indvars.iv
  %bcmp = call i32 @bcmp(ptr nonnull %3, ptr nonnull %26, i64 %23)
  %27 = icmp eq i32 %bcmp, 0
  br i1 %27, label %30, label %28

28:                                               ; preds = %19
  br i1 %.not20, label %.loopexit, label %29

29:                                               ; preds = %28
  %puts = call i32 @puts(ptr nonnull dereferenceable(1) @str)
  br label %.loopexit

30:                                               ; preds = %19
  br i1 %.not20, label %31, label %.thread

31:                                               ; preds = %30
  br i1 %15, label %.backedge.backedge, label %.loopexit

.backedge.backedge:                               ; preds = %31, %.thread
  br label %.backedge, !llvm.loop !18

.thread:                                          ; preds = %30
  %puts21 = call i32 @puts(ptr nonnull dereferenceable(1) @str.1)
  br i1 %15, label %.backedge.backedge, label %32

32:                                               ; preds = %.thread
  %putchar = call i32 @putchar(i32 10)
  br label %.loopexit

.loopexit:                                        ; preds = %31, %32, %28, %29
  %.018 = phi i32 [ -1, %29 ], [ -1, %28 ], [ 0, %32 ], [ 0, %31 ]
  call void @llvm.lifetime.end.p0(i64 381, ptr nonnull %3) #10
  ret i32 %.018
}